target datalayout = "e-m:e-p270:32:32-p271:32:32-p272:64:64-i64:64-i128:128-f80:128-n8:16:32:64-S128"
target triple = "x86_64-pc-linux-gnu"

%struct.b2Vec2 = type { float, float }
%struct.b2RayCastInput = type { %struct.b2Vec2, %struct.b2Vec2, float }

@b2_lengthUnitsPerMeter = external global float, align 4

; Function Attrs: nounwind uwtable
define zeroext i1 @b2IsValidRay(ptr noundef %0) #0 {
  %2 = alloca ptr, align 8
  %3 = alloca i8, align 1
  store ptr %0, ptr %2, align 8, !tbaa !3
  call void @llvm.lifetime.start.p0(i64 1, ptr %3) #9
  %4 = load ptr, ptr %2, align 8, !tbaa !3
  %5 = getelementptr inbounds nuw %struct.b2RayCastInput, ptr %4, i32 0, i32 0
  %6 = load <2 x float>, ptr %5, align 4
  %7 = call zeroext i1 @b2IsValidVec2(<2 x float> %6)
  br i1 %7, label %8, label %30

8:                                                ; preds = %1
  %9 = load ptr, ptr %2, align 8, !tbaa !3
  %10 = getelementptr inbounds nuw %struct.b2RayCastInput, ptr %9, i32 0, i32 1
  %11 = load <2 x float>, ptr %10, align 4
  %12 = call zeroext i1 @b2IsValidVec2(<2 x float> %11)
  br i1 %12, label %13, label %30

13:                                               ; preds = %8
  %14 = load ptr, ptr %2, align 8, !tbaa !3
  %15 = getelementptr inbounds nuw %struct.b2RayCastInput, ptr %14, i32 0, i32 2
  %16 = load float, ptr %15, align 4, !tbaa !8
  %17 = call zeroext i1 @b2IsValidFloat(float noundef %16)
  br i1 %17, label %18, label %30

18:                                               ; preds = %13
  %19 = load ptr, ptr %2, align 8, !tbaa !3
  %20 = getelementptr inbounds nuw %struct.b2RayCastInput, ptr %19, i32 0, i32 2
  %21 = load float, ptr %20, align 4, !tbaa !8
  %22 = fcmp ole float 0.000000e+00, %21
  br i1 %22, label %23, label %30

23:                                               ; preds = %18
  %24 = load ptr, ptr %2, align 8, !tbaa !3
  %25 = getelementptr inbounds nuw %struct.b2RayCastInput, ptr %24, i32 0, i32 2
  %26 = load float, ptr %25, align 4, !tbaa !8
  %27 = load float, ptr @b2_lengthUnitsPerMeter, align 4, !tbaa !12
  %28 = fmul float 1.000000e+05, %27
  %29 = fcmp olt float %26, %28
  br label %30

30:                                               ; preds = %23, %18, %13, %8, %1
  %31 = phi i1 [ false, %18 ], [ false, %13 ], [ false, %8 ], [ false, %1 ], [ %29, %23 ]
  %32 = zext i1 %31 to i8
  store i8 %32, ptr %3, align 1, !tbaa !13
  %33 = load i8, ptr %3, align 1, !tbaa !13, !range !15, !noundef !16
  %34 = trunc i8 %33 to i1
  call void @llvm.lifetime.end.p0(i64 1, ptr %3) #9
  ret i1 %34
}