; Function Attrs: nounwind uwtable
define zeroext i1 @b2IsValidRay(ptr noundef readonly captures(none) %0) local_unnamed_addr #0 {
  %2 = load <2 x float>, ptr %0, align 4
  %3 = tail call zeroext i1 @b2IsValidVec2(<2 x float> %2) #17
  br i1 %3, label %4, label %19

4:                                                ; preds = %1
  %5 = getelementptr inbounds nuw i8, ptr %0, i64 8
  %6 = load <2 x float>, ptr %5, align 4
  %7 = tail call zeroext i1 @b2IsValidVec2(<2 x float> %6) #17
  br i1 %7, label %8, label %19

8:                                                ; preds = %4
  %9 = getelementptr inbounds nuw i8, ptr %0, i64 16
  %10 = load float, ptr %9, align 4, !tbaa !3
  %11 = tail call zeroext i1 @b2IsValidFloat(float noundef %10) #17
  br i1 %11, label %12, label %19

12:                                               ; preds = %8
  %13 = load float, ptr %9, align 4, !tbaa !3
  %14 = fcmp ult float %13, 0.000000e+00
  br i1 %14, label %19, label %15

15:                                               ; preds = %12
  %16 = load float, ptr @b2_lengthUnitsPerMeter, align 4, !tbaa !9
  %17 = fmul float %16, 1.000000e+05
  %18 = fcmp olt float %13, %17
  br label %19

19:                                               ; preds = %15, %12, %8, %4, %1
  %20 = phi i1 [ false, %12 ], [ false, %8 ], [ false, %4 ], [ false, %1 ], [ %18, %15 ]
  ret i1 %20
}